; Function Attrs: mustprogress uwtable
define void @_ZN3gmx26initCorrelationGridHistoryEPNS_22CorrelationGridHistoryEiii(ptr noundef %0, i32 noundef %1, i32 noundef %2, i32 noundef %3) local_unnamed_addr #0 personality ptr @__gxx_personality_v0 {
  store i32 %1, ptr %0, align 8
  %5 = getelementptr inbounds i8, ptr %0, i64 4
  store i32 %2, ptr %5, align 4
  %6 = getelementptr inbounds i8, ptr %0, i64 8
  store i32 %3, ptr %6, align 8
  %7 = getelementptr inbounds i8, ptr %0, i64 16
  %8 = mul nsw i32 %2, %1
  %9 = mul nsw i32 %8, %3
  %10 = sext i32 %9 to i64
  %11 = getelementptr inbounds i8, ptr %0, i64 24
  %12 = load ptr, ptr %11, align 8
  %13 = load ptr, ptr %7, align 8
  %14 = ptrtoint ptr %12 to i64
  %15 = ptrtoint ptr %13 to i64
  %16 = sub i64 %14, %15
  %17 = sdiv exact i64 %16, 88
  %18 = icmp ult i64 %17, %10
  br i1 %18, label %19, label %21

19:                                               ; preds = %4
  %20 = sub nsw i64 %10, %17
  tail call void @_ZNSt6vectorIN3gmx27CorrelationBlockDataHistoryESaIS1_EE17_M_default_appendEm(ptr noundef nonnull align 8 dereferenceable(24) %7, i64 noundef %20)
  br label %_ZNSt6vectorIN3gmx27CorrelationBlockDataHistoryESaIS1_EE6resizeEm.exit

21:                                               ; preds = %4
  %22 = icmp ugt i64 %17, %10
  br i1 %22, label %23, label %_ZNSt6vectorIN3gmx27CorrelationBlockDataHistoryESaIS1_EE6resizeEm.exit

23:                                               ; preds = %21
  %24 = getelementptr inbounds %"struct.gmx::CorrelationBlockDataHistory", ptr %13, i64 %10
  %.not.i.i = icmp eq ptr %12, %24
  br i1 %.not.i.i, label %_ZNSt6vectorIN3gmx27CorrelationBlockDataHistoryESaIS1_EE6resizeEm.exit, label %25

25:                                               ; preds = %23
  store ptr %24, ptr %11, align 8
  br label %_ZNSt6vectorIN3gmx27CorrelationBlockDataHistoryESaIS1_EE6resizeEm.exit

_ZNSt6vectorIN3gmx27CorrelationBlockDataHistoryESaIS1_EE6resizeEm.exit: ; preds = %19, %21, %23, %25
  ret void
}